; Function Attrs: nounwind uwtable
define dso_local range(i64 0, 2) i64 @has_column_privilege_id_attnum(ptr noundef captures(none) %0) local_unnamed_addr #0 {
  %2 = alloca i8, align 1
  %3 = getelementptr inbounds nuw i8, ptr %0, i64 32
  %4 = load i64, ptr %3, align 8
  %5 = trunc i64 %4 to i32
  %6 = getelementptr inbounds nuw i8, ptr %0, i64 48
  %7 = load i64, ptr %6, align 8
  %8 = trunc i64 %7 to i16
  %9 = getelementptr inbounds nuw i8, ptr %0, i64 64
  %10 = load i64, ptr %9, align 8
  %11 = inttoptr i64 %10 to ptr
  %12 = tail call ptr @pg_detoast_datum_packed(ptr noundef %11) #14
  %13 = tail call i32 @GetUserId() #14
  %14 = tail call fastcc i64 @convert_any_priv_string(ptr noundef %12, ptr noundef nonnull @convert_column_priv_string.column_priv_map)
  call void @llvm.lifetime.start.p0(i64 1, ptr nonnull %2) #14
  store i8 0, ptr %2, align 1
  %15 = icmp eq i16 %8, 0
  br i1 %15, label %column_privilege_check.exit.thread, label %16

16:                                               ; preds = %1
  %17 = call i32 @pg_attribute_aclcheck_ext(i32 noundef %5, i16 noundef signext %8, i32 noundef %13, i64 noundef %14, ptr noundef nonnull %2) #14
  %18 = icmp eq i32 %17, 0
  br i1 %18, label %column_privilege_check.exit.thread14, label %19

19:                                               ; preds = %16
  %20 = load i8, ptr %2, align 1, !range !27, !noundef !28
  %21 = trunc nuw i8 %20 to i1
  br i1 %21, label %column_privilege_check.exit.thread, label %22

22:                                               ; preds = %19
  %23 = call i32 @pg_class_aclcheck_ext(i32 noundef %5, i32 noundef %13, i64 noundef %14, ptr noundef nonnull %2) #14
  %24 = icmp eq i32 %23, 0
  br i1 %24, label %column_privilege_check.exit.thread14, label %column_privilege_check.exit

column_privilege_check.exit.thread:               ; preds = %1, %19
  call void @llvm.lifetime.end.p0(i64 1, ptr nonnull %2) #14
  br label %26

column_privilege_check.exit.thread14:             ; preds = %16, %22
  call void @llvm.lifetime.end.p0(i64 1, ptr nonnull %2) #14
  br label %28

column_privilege_check.exit:                      ; preds = %22
  %25 = load i8, ptr %2, align 1, !range !27, !noundef !28
  call void @llvm.lifetime.end.p0(i64 1, ptr nonnull %2) #14
  %.not = icmp eq i8 %25, 0
  br i1 %.not, label %28, label %26

26:                                               ; preds = %column_privilege_check.exit.thread, %column_privilege_check.exit
  %27 = getelementptr inbounds nuw i8, ptr %0, i64 28
  store i8 1, ptr %27, align 4
  br label %28

28:                                               ; preds = %column_privilege_check.exit, %column_privilege_check.exit.thread14, %26
  %.0 = phi i64 [ 0, %26 ], [ 1, %column_privilege_check.exit.thread14 ], [ 0, %column_privilege_check.exit ]
  ret i64 %.0
}